target datalayout = "e-m:e-p270:32:32-p271:32:32-p272:64:64-i64:64-i128:128-f80:128-n8:16:32:64-S128"
target triple = "x86_64-pc-linux-gnu"

%struct.Abc_Obj_t_ = type { ptr, ptr, i32, i32, %struct.Vec_Int_t_, %struct.Vec_Int_t_, %union.anon, %union.anon.0 }
%struct.Vec_Int_t_ = type { i32, i32, ptr }
%union.anon = type { ptr }
%union.anon.0 = type { ptr }
%struct.Abc_Ntk_t_ = type { i32, i32, ptr, ptr, ptr, ptr, ptr, ptr, ptr, ptr, ptr, ptr, ptr, [11 x i32], i32, i32, i32, i32, ptr, i32, ptr, ptr, i32, i32, i32, double, i32, %struct.Vec_Int_t_, ptr, ptr, ptr, ptr, ptr, float, i32, ptr, ptr, ptr, ptr, ptr, ptr, ptr, ptr, ptr, ptr, ptr, ptr, ptr, ptr, ptr, ptr, ptr, ptr, ptr, ptr, ptr, ptr }
%struct.Vec_Ptr_t_ = type { i32, i32, ptr }
%struct.SC_Cell_ = type { ptr, i32, i32, i32, i32, float, float, i32, i32, i32, %struct.Vec_Ptr_t_, i32, i32, ptr, ptr, ptr, ptr, i32, i32 }
%struct.SC_Man_ = type { ptr, ptr, i32, ptr, ptr, ptr, ptr, ptr, ptr, ptr, ptr, ptr, ptr, ptr, ptr, ptr, ptr, ptr, ptr, ptr, float, float, float, i32, ptr, ptr, ptr, ptr, ptr, ptr, ptr, i32, float, float, float, float, float, float, i64, i64, i64, i64, i64, ptr }
%struct.SC_Lib_ = type { ptr, ptr, ptr, ptr, float, i32, float, i32, %struct.Vec_Ptr_t_, %struct.Vec_Ptr_t_, %struct.Vec_Ptr_t_, %struct.Vec_Ptr_t_, %struct.Vec_Ptr_t_, ptr, i32 }
%struct.Vec_Que_t_ = type { i32, i32, ptr, ptr, ptr }
%struct.Vec_Flt_t_ = type { i32, i32, ptr }

; Function Attrs: inlinehint nounwind uwtable
define internal i32 @Vec_IntEntry(ptr noundef %0, i32 noundef %1) #2 {
  %3 = alloca ptr, align 8
  %4 = alloca i32, align 4
  store ptr %0, ptr %3, align 8, !tbaa !12
  store i32 %1, ptr %4, align 4, !tbaa !14
  %5 = load ptr, ptr %3, align 8, !tbaa !12
  %6 = getelementptr inbounds nuw %struct.Vec_Int_t_, ptr %5, i32 0, i32 2
  %7 = load ptr, ptr %6, align 8, !tbaa !48
  %8 = load i32, ptr %4, align 4, !tbaa !14
  %9 = sext i32 %8 to i64
  %10 = getelementptr inbounds i32, ptr %7, i64 %9
  %11 = load i32, ptr %10, align 4, !tbaa !14
  ret i32 %11
}

; Function Attrs: inlinehint nounwind uwtable
define internal ptr @SC_LibCell(ptr noundef %0, i32 noundef %1) #2 {
  %3 = alloca ptr, align 8
  %4 = alloca i32, align 4
  store ptr %0, ptr %3, align 8, !tbaa !91
  store i32 %1, ptr %4, align 4, !tbaa !14
  %5 = load ptr, ptr %3, align 8, !tbaa !91
  %6 = getelementptr inbounds nuw %struct.SC_Lib_, ptr %5, i32 0, i32 11
  %7 = load i32, ptr %4, align 4, !tbaa !14
  %8 = call ptr @Vec_PtrEntry(ptr noundef %6, i32 noundef %7)
  ret ptr %8
}

; Function Attrs: inlinehint nounwind uwtable
define internal ptr @Abc_SclObjLib(ptr noundef %0) #2 {
  %2 = alloca ptr, align 8
  store ptr %0, ptr %2, align 8, !tbaa !3
  %3 = load ptr, ptr %2, align 8, !tbaa !3
  %4 = getelementptr inbounds nuw %struct.Abc_Obj_t_, ptr %3, i32 0, i32 0
  %5 = load ptr, ptr %4, align 8, !tbaa !24
  %6 = getelementptr inbounds nuw %struct.Abc_Ntk_t_, ptr %5, i32 0, i32 45
  %7 = load ptr, ptr %6, align 8, !tbaa !147
  ret ptr %7
}

; Function Attrs: inlinehint nounwind uwtable
define internal i32 @Abc_SclObjCellId(ptr noundef %0) #2 {
  %2 = alloca ptr, align 8
  store ptr %0, ptr %2, align 8, !tbaa !3
  %3 = load ptr, ptr %2, align 8, !tbaa !3
  %4 = getelementptr inbounds nuw %struct.Abc_Obj_t_, ptr %3, i32 0, i32 0
  %5 = load ptr, ptr %4, align 8, !tbaa !24
  %6 = getelementptr inbounds nuw %struct.Abc_Ntk_t_, ptr %5, i32 0, i32 46
  %7 = load ptr, ptr %6, align 8, !tbaa !87
  %8 = load ptr, ptr %2, align 8, !tbaa !3
  %9 = call i32 @Abc_ObjId(ptr noundef %8)
  %10 = call i32 @Vec_IntEntry(ptr noundef %7, i32 noundef %9)
  ret i32 %10
}

; Function Attrs: inlinehint nounwind uwtable
define internal ptr @Vec_PtrEntry(ptr noundef %0, i32 noundef %1) #2 {
  %3 = alloca ptr, align 8
  %4 = alloca i32, align 4
  store ptr %0, ptr %3, align 8, !tbaa !103
  store i32 %1, ptr %4, align 4, !tbaa !14
  %5 = load ptr, ptr %3, align 8, !tbaa !103
  %6 = getelementptr inbounds nuw %struct.Vec_Ptr_t_, ptr %5, i32 0, i32 2
  %7 = load ptr, ptr %6, align 8, !tbaa !43
  %8 = load i32, ptr %4, align 4, !tbaa !14
  %9 = sext i32 %8 to i64
  %10 = getelementptr inbounds ptr, ptr %7, i64 %9
  %11 = load ptr, ptr %10, align 8, !tbaa !46
  ret ptr %11
}

; Function Attrs: inlinehint nounwind uwtable
define internal void @Vec_FltWriteEntry(ptr noundef %0, i32 noundef %1, float noundef %2) #2 {
  %4 = alloca ptr, align 8
  %5 = alloca i32, align 4
  %6 = alloca float, align 4
  store ptr %0, ptr %4, align 8, !tbaa !105
  store i32 %1, ptr %5, align 4, !tbaa !14
  store float %2, ptr %6, align 4, !tbaa !59
  %7 = load float, ptr %6, align 4, !tbaa !59
  %8 = load ptr, ptr %4, align 8, !tbaa !105
  %9 = getelementptr inbounds nuw %struct.Vec_Flt_t_, ptr %8, i32 0, i32 2
  %10 = load ptr, ptr %9, align 8, !tbaa !106
  %11 = load i32, ptr %5, align 4, !tbaa !14
  %12 = sext i32 %11 to i64
  %13 = getelementptr inbounds float, ptr %10, i64 %12
  store float %7, ptr %13, align 4, !tbaa !59
  ret void
}

; Function Attrs: inlinehint nounwind uwtable
define internal ptr @Abc_SclObjCell(ptr noundef %0) #2 {
  %2 = alloca ptr, align 8
  %3 = alloca i32, align 4
  store ptr %0, ptr %2, align 8, !tbaa !3
  call void @llvm.lifetime.start.p0(i64 4, ptr %3) #12
  %4 = load ptr, ptr %2, align 8, !tbaa !3
  %5 = call i32 @Abc_SclObjCellId(ptr noundef %4)
  store i32 %5, ptr %3, align 4, !tbaa !14
  %6 = load i32, ptr %3, align 4, !tbaa !14
  %7 = icmp eq i32 %6, -1
  br i1 %7, label %8, label %9

8:                                                ; preds = %1
  br label %14

9:                                                ; preds = %1
  %10 = load ptr, ptr %2, align 8, !tbaa !3
  %11 = call ptr @Abc_SclObjLib(ptr noundef %10)
  %12 = load i32, ptr %3, align 4, !tbaa !14
  %13 = call ptr @SC_LibCell(ptr noundef %11, i32 noundef %12)
  br label %14

14:                                               ; preds = %9, %8
  %15 = phi ptr [ null, %8 ], [ %13, %9 ]
  call void @llvm.lifetime.end.p0(i64 4, ptr %3) #12
  ret ptr %15
}

; Function Attrs: inlinehint nounwind uwtable
define internal i32 @Abc_ObjId(ptr noundef %0) #2 {
  %2 = alloca ptr, align 8
  store ptr %0, ptr %2, align 8, !tbaa !3
  %3 = load ptr, ptr %2, align 8, !tbaa !3
  %4 = getelementptr inbounds nuw %struct.Abc_Obj_t_, ptr %3, i32 0, i32 2
  %5 = load i32, ptr %4, align 8, !tbaa !49
  ret i32 %5
}

; Function Attrs: inlinehint nounwind uwtable
define internal i32 @Abc_ObjFaninNum(ptr noundef %0) #2 {
  %2 = alloca ptr, align 8
  store ptr %0, ptr %2, align 8, !tbaa !3
  %3 = load ptr, ptr %2, align 8, !tbaa !3
  %4 = getelementptr inbounds nuw %struct.Abc_Obj_t_, ptr %3, i32 0, i32 4
  %5 = getelementptr inbounds nuw %struct.Vec_Int_t_, ptr %4, i32 0, i32 1
  %6 = load i32, ptr %5, align 4, !tbaa !29
  ret i32 %6
}

; Function Attrs: inlinehint nounwind uwtable
define internal i32 @Abc_ObjIsNode(ptr noundef %0) #2 {
  %2 = alloca ptr, align 8
  store ptr %0, ptr %2, align 8, !tbaa !3
  %3 = load ptr, ptr %2, align 8, !tbaa !3
  %4 = getelementptr inbounds nuw %struct.Abc_Obj_t_, ptr %3, i32 0, i32 3
  %5 = load i32, ptr %4, align 4
  %6 = and i32 %5, 15
  %7 = icmp eq i32 %6, 7
  %8 = zext i1 %7 to i32
  ret i32 %8
}

; Function Attrs: inlinehint nounwind uwtable
define internal ptr @Abc_NtkObj(ptr noundef %0, i32 noundef %1) #2 {
  %3 = alloca ptr, align 8
  %4 = alloca i32, align 4
  store ptr %0, ptr %3, align 8, !tbaa !10
  store i32 %1, ptr %4, align 4, !tbaa !14
  %5 = load ptr, ptr %3, align 8, !tbaa !10
  %6 = getelementptr inbounds nuw %struct.Abc_Ntk_t_, ptr %5, i32 0, i32 5
  %7 = load ptr, ptr %6, align 8, !tbaa !30
  %8 = load i32, ptr %4, align 4, !tbaa !14
  %9 = call ptr @Vec_PtrEntry(ptr noundef %7, i32 noundef %8)
  ret ptr %9
}

; Function Attrs: inlinehint nounwind uwtable
define internal i32 @Vec_PtrSize(ptr noundef %0) #2 {
  %2 = alloca ptr, align 8
  store ptr %0, ptr %2, align 8, !tbaa !103
  %3 = load ptr, ptr %2, align 8, !tbaa !103
  %4 = getelementptr inbounds nuw %struct.Vec_Ptr_t_, ptr %3, i32 0, i32 1
  %5 = load i32, ptr %4, align 4, !tbaa !104
  ret i32 %5
}

; Function Attrs: inlinehint nounwind uwtable
define internal void @Vec_QueClear(ptr noundef %0) #2 {
  %2 = alloca ptr, align 8
  %3 = alloca i32, align 4
  store ptr %0, ptr %2, align 8, !tbaa !96
  call void @llvm.lifetime.start.p0(i64 4, ptr %3) #12
  store i32 1, ptr %3, align 4, !tbaa !14
  br label %4

4:                                                ; preds = %29, %1
  %5 = load i32, ptr %3, align 4, !tbaa !14
  %6 = load ptr, ptr %2, align 8, !tbaa !96
  %7 = getelementptr inbounds nuw %struct.Vec_Que_t_, ptr %6, i32 0, i32 1
  %8 = load i32, ptr %7, align 4, !tbaa !97
  %9 = icmp slt i32 %5, %8
  br i1 %9, label %10, label %32

10:                                               ; preds = %4
  %11 = load ptr, ptr %2, align 8, !tbaa !96
  %12 = getelementptr inbounds nuw %struct.Vec_Que_t_, ptr %11, i32 0, i32 3
  %13 = load ptr, ptr %12, align 8, !tbaa !100
  %14 = load ptr, ptr %2, align 8, !tbaa !96
  %15 = getelementptr inbounds nuw %struct.Vec_Que_t_, ptr %14, i32 0, i32 2
  %16 = load ptr, ptr %15, align 8, !tbaa !101
  %17 = load i32, ptr %3, align 4, !tbaa !14
  %18 = sext i32 %17 to i64
  %19 = getelementptr inbounds i32, ptr %16, i64 %18
  %20 = load i32, ptr %19, align 4, !tbaa !14
  %21 = sext i32 %20 to i64
  %22 = getelementptr inbounds i32, ptr %13, i64 %21
  store i32 -1, ptr %22, align 4, !tbaa !14
  %23 = load ptr, ptr %2, align 8, !tbaa !96
  %24 = getelementptr inbounds nuw %struct.Vec_Que_t_, ptr %23, i32 0, i32 2
  %25 = load ptr, ptr %24, align 8, !tbaa !101
  %26 = load i32, ptr %3, align 4, !tbaa !14
  %27 = sext i32 %26 to i64
  %28 = getelementptr inbounds i32, ptr %25, i64 %27
  store i32 -1, ptr %28, align 4, !tbaa !14
  br label %29

29:                                               ; preds = %10
  %30 = load i32, ptr %3, align 4, !tbaa !14
  %31 = add nsw i32 %30, 1
  store i32 %31, ptr %3, align 4, !tbaa !14
  br label %4, !llvm.loop !102

32:                                               ; preds = %4
  %33 = load ptr, ptr %2, align 8, !tbaa !96
  %34 = getelementptr inbounds nuw %struct.Vec_Que_t_, ptr %33, i32 0, i32 1
  store i32 1, ptr %34, align 4, !tbaa !97
  call void @llvm.lifetime.end.p0(i64 4, ptr %3) #12
  ret void
}

; Function Attrs: nounwind uwtable
define void @Abc_NtkCollectNodesByArea(ptr noundef %0, ptr noundef %1) #0 {
  %3 = alloca ptr, align 8
  %4 = alloca ptr, align 8
  %5 = alloca ptr, align 8
  %6 = alloca i32, align 4
  store ptr %0, ptr %3, align 8, !tbaa !53
  store ptr %1, ptr %4, align 8, !tbaa !10
  call void @llvm.lifetime.start.p0(i64 8, ptr %5) #12
  call void @llvm.lifetime.start.p0(i64 4, ptr %6) #12
  %7 = load ptr, ptr %3, align 8, !tbaa !53
  %8 = getelementptr inbounds nuw %struct.SC_Man_, ptr %7, i32 0, i32 24
  %9 = load ptr, ptr %8, align 8, !tbaa !93
  call void @Vec_QueClear(ptr noundef %9)
  store i32 0, ptr %6, align 4, !tbaa !14
  br label %10

10:                                               ; preds = %52, %2
  %11 = load i32, ptr %6, align 4, !tbaa !14
  %12 = load ptr, ptr %4, align 8, !tbaa !10
  %13 = getelementptr inbounds nuw %struct.Abc_Ntk_t_, ptr %12, i32 0, i32 5
  %14 = load ptr, ptr %13, align 8, !tbaa !30
  %15 = call i32 @Vec_PtrSize(ptr noundef %14)
  %16 = icmp slt i32 %11, %15
  br i1 %16, label %17, label %21

17:                                               ; preds = %10
  %18 = load ptr, ptr %4, align 8, !tbaa !10
  %19 = load i32, ptr %6, align 4, !tbaa !14
  %20 = call ptr @Abc_NtkObj(ptr noundef %18, i32 noundef %19)
  store ptr %20, ptr %5, align 8, !tbaa !3
  br label %21

21:                                               ; preds = %17, %10
  %22 = phi i1 [ false, %10 ], [ true, %17 ]
  br i1 %22, label %23, label %55

23:                                               ; preds = %21
  %24 = load ptr, ptr %5, align 8, !tbaa !3
  %25 = icmp eq ptr %24, null
  br i1 %25, label %30, label %26

26:                                               ; preds = %23
  %27 = load ptr, ptr %5, align 8, !tbaa !3
  %28 = call i32 @Abc_ObjIsNode(ptr noundef %27)
  %29 = icmp ne i32 %28, 0
  br i1 %29, label %31, label %30

30:                                               ; preds = %26, %23
  br label %51

31:                                               ; preds = %26
  %32 = load ptr, ptr %5, align 8, !tbaa !3
  %33 = call i32 @Abc_ObjFaninNum(ptr noundef %32)
  %34 = icmp sgt i32 %33, 0
  br i1 %34, label %35, label %50

35:                                               ; preds = %31
  %36 = load ptr, ptr %3, align 8, !tbaa !53
  %37 = getelementptr inbounds nuw %struct.SC_Man_, ptr %36, i32 0, i32 25
  %38 = load ptr, ptr %37, align 8, !tbaa !94
  %39 = load ptr, ptr %5, align 8, !tbaa !3
  %40 = call i32 @Abc_ObjId(ptr noundef %39)
  %41 = load ptr, ptr %5, align 8, !tbaa !3
  %42 = call ptr @Abc_SclObjCell(ptr noundef %41)
  %43 = getelementptr inbounds nuw %struct.SC_Cell_, ptr %42, i32 0, i32 5
  %44 = load float, ptr %43, align 8, !tbaa !60
  call void @Vec_FltWriteEntry(ptr noundef %38, i32 noundef %40, float noundef %44)
  %45 = load ptr, ptr %3, align 8, !tbaa !53
  %46 = getelementptr inbounds nuw %struct.SC_Man_, ptr %45, i32 0, i32 24
  %47 = load ptr, ptr %46, align 8, !tbaa !93
  %48 = load ptr, ptr %5, align 8, !tbaa !3
  %49 = call i32 @Abc_ObjId(ptr noundef %48)
  call void @Vec_QuePush(ptr noundef %47, i32 noundef %49)
  br label %50

50:                                               ; preds = %35, %31
  br label %51

51:                                               ; preds = %50, %30
  br label %52

52:                                               ; preds = %51
  %53 = load i32, ptr %6, align 4, !tbaa !14
  %54 = add nsw i32 %53, 1
  store i32 %54, ptr %6, align 4, !tbaa !14
  br label %10, !llvm.loop !95

55:                                               ; preds = %21
  call void @llvm.lifetime.end.p0(i64 4, ptr %6) #12
  call void @llvm.lifetime.end.p0(i64 8, ptr %5) #12
  ret void
}