; Function Attrs: nounwind uwtable
define void @Abc_NtkCollectNodesByArea(ptr noundef readonly captures(none) %0, ptr noundef readonly captures(none) %1) local_unnamed_addr #0 {
  %3 = getelementptr inbounds nuw i8, ptr %0, i64 176
  %4 = load ptr, ptr %3, align 8, !tbaa !96
  %5 = getelementptr inbounds nuw i8, ptr %4, i64 4
  %6 = load i32, ptr %5, align 4, !tbaa !97
  %7 = icmp sgt i32 %6, 1
  br i1 %7, label %.lr.ph.i, label %Vec_QueClear.exit

.lr.ph.i:                                         ; preds = %2
  %8 = getelementptr inbounds nuw i8, ptr %4, i64 16
  %9 = load ptr, ptr %8, align 8, !tbaa !100
  %10 = getelementptr inbounds nuw i8, ptr %4, i64 8
  %11 = load ptr, ptr %10, align 8, !tbaa !101
  br label %12

12:                                               ; preds = %12, %.lr.ph.i
  %indvars.iv.i = phi i64 [ 1, %.lr.ph.i ], [ %indvars.iv.next.i, %12 ]
  %13 = getelementptr inbounds nuw i32, ptr %11, i64 %indvars.iv.i
  %14 = load i32, ptr %13, align 4, !tbaa !33
  %15 = sext i32 %14 to i64
  %16 = getelementptr inbounds i32, ptr %9, i64 %15
  store i32 -1, ptr %16, align 4, !tbaa !33
  store i32 -1, ptr %13, align 4, !tbaa !33
  %indvars.iv.next.i = add nuw nsw i64 %indvars.iv.i, 1
  %17 = load i32, ptr %5, align 4, !tbaa !97
  %18 = sext i32 %17 to i64
  %19 = icmp slt i64 %indvars.iv.next.i, %18
  br i1 %19, label %12, label %Vec_QueClear.exit, !llvm.loop !102

Vec_QueClear.exit:                                ; preds = %12, %2
  store i32 1, ptr %5, align 4, !tbaa !97
  %20 = getelementptr inbounds nuw i8, ptr %1, i64 32
  %21 = load ptr, ptr %20, align 8, !tbaa !18
  %22 = getelementptr i8, ptr %21, i64 4
  %.val2022 = load i32, ptr %22, align 4, !tbaa !103
  %23 = icmp sgt i32 %.val2022, 0
  br i1 %23, label %.lr.ph, label %.critedge

.lr.ph:                                           ; preds = %Vec_QueClear.exit
  %24 = getelementptr inbounds nuw i8, ptr %0, i64 184
  br label %25

25:                                               ; preds = %.lr.ph, %55
  %26 = phi ptr [ %21, %.lr.ph ], [ %56, %55 ]
  %indvars.iv = phi i64 [ 0, %.lr.ph ], [ %indvars.iv.next, %55 ]
  %27 = getelementptr i8, ptr %26, i64 8
  %.val17.val = load ptr, ptr %27, align 8, !tbaa !31
  %28 = getelementptr inbounds nuw ptr, ptr %.val17.val, i64 %indvars.iv
  %29 = load ptr, ptr %28, align 8, !tbaa !34
  %30 = icmp eq ptr %29, null
  br i1 %30, label %55, label %31

31:                                               ; preds = %25
  %32 = getelementptr i8, ptr %29, i64 20
  %.val16 = load i32, ptr %32, align 4
  %33 = and i32 %.val16, 15
  %.not = icmp eq i32 %33, 7
  br i1 %.not, label %34, label %55

34:                                               ; preds = %31
  %35 = getelementptr i8, ptr %29, i64 28
  %.val = load i32, ptr %35, align 4, !tbaa !16
  %36 = icmp sgt i32 %.val, 0
  br i1 %36, label %Abc_SclObjCell.exit, label %55

Abc_SclObjCell.exit:                              ; preds = %34
  %37 = load ptr, ptr %24, align 8, !tbaa !104
  %38 = getelementptr i8, ptr %29, i64 16
  %.val15 = load i32, ptr %38, align 8, !tbaa !35
  %.val18 = load ptr, ptr %29, align 8, !tbaa !3
  %39 = getelementptr i8, ptr %.val18, i64 376
  %.val.val.i = load ptr, ptr %39, align 8, !tbaa !53
  %40 = getelementptr i8, ptr %.val.val.i, i64 8
  %.val.val.val.i = load ptr, ptr %40, align 8, !tbaa !37
  %41 = sext i32 %.val15 to i64
  %42 = getelementptr inbounds i32, ptr %.val.val.val.i, i64 %41
  %43 = load i32, ptr %42, align 4, !tbaa !33
  %44 = icmp ne i32 %43, -1
  tail call void @llvm.assume(i1 %44)
  %45 = getelementptr i8, ptr %.val18, i64 368
  %.val4.val.i = load ptr, ptr %45, align 8, !tbaa !54
  %46 = getelementptr i8, ptr %.val4.val.i, i64 104
  %.val5.i = load ptr, ptr %46, align 8, !tbaa !31
  %47 = sext i32 %43 to i64
  %48 = getelementptr inbounds ptr, ptr %.val5.i, i64 %47
  %49 = load ptr, ptr %48, align 8, !tbaa !34
  %50 = getelementptr inbounds nuw i8, ptr %49, i64 24
  %51 = load float, ptr %50, align 8, !tbaa !81
  %52 = getelementptr i8, ptr %37, i64 8
  %.val21 = load ptr, ptr %52, align 8, !tbaa !71
  %53 = getelementptr inbounds float, ptr %.val21, i64 %41
  store float %51, ptr %53, align 4, !tbaa !72
  %54 = load ptr, ptr %3, align 8, !tbaa !96
  tail call fastcc void @Vec_QuePush(ptr noundef %54, i32 noundef %.val15)
  %.pre = load ptr, ptr %20, align 8, !tbaa !18
  br label %55

55:                                               ; preds = %31, %25, %Abc_SclObjCell.exit, %34
  %56 = phi ptr [ %26, %31 ], [ %26, %25 ], [ %.pre, %Abc_SclObjCell.exit ], [ %26, %34 ]
  %indvars.iv.next = add nuw nsw i64 %indvars.iv, 1
  %57 = getelementptr i8, ptr %56, i64 4
  %.val20 = load i32, ptr %57, align 4, !tbaa !103
  %58 = sext i32 %.val20 to i64
  %59 = icmp slt i64 %indvars.iv.next, %58
  br i1 %59, label %25, label %.critedge, !llvm.loop !105

.critedge:                                        ; preds = %55, %Vec_QueClear.exit
  ret void
}